; Function Attrs: nounwind uwtable
define ptr @l_Lean_Meta_LazyDiscrTree_findModuleMatches___rarg(ptr noundef %0, ptr noundef %1, ptr noundef %2, ptr noundef %3, ptr noundef %4, ptr noundef %5, ptr noundef %6) #1 {
  %8 = getelementptr inbounds nuw i8, ptr %4, i64 24
  %9 = load ptr, ptr %8, align 8, !tbaa !4
  %10 = ptrtoint ptr %9 to i64
  %11 = and i64 %10, 1
  %.not = icmp eq i64 %11, 0
  br i1 %.not, label %12, label %lean_inc.exit

12:                                               ; preds = %7
  %.val.i = load i32, ptr %9, align 4, !tbaa !8
  %13 = icmp sgt i32 %.val.i, 0
  br i1 %13, label %14, label %16, !prof !11

14:                                               ; preds = %12
  %15 = add nuw i32 %.val.i, 1
  store i32 %15, ptr %9, align 4, !tbaa !8
  br label %lean_inc.exit

16:                                               ; preds = %12
  %.not.i17 = icmp eq i32 %.val.i, 0
  br i1 %.not.i17, label %lean_inc.exit, label %17

17:                                               ; preds = %16
  tail call void @lean_inc_ref_cold(ptr noundef nonnull %9) #6
  br label %lean_inc.exit

lean_inc.exit:                                    ; preds = %17, %16, %14, %7
  tail call void @lean_inc_heartbeat() #6
  %18 = tail call noalias ptr @mi_malloc_small(i64 noundef 40) #6
  %19 = icmp eq ptr %18, null
  br i1 %19, label %20, label %lean_alloc_closure.exit

20:                                               ; preds = %lean_inc.exit
  tail call void @lean_internal_panic_out_of_memory() #7
  unreachable

lean_alloc_closure.exit:                          ; preds = %lean_inc.exit
  %21 = getelementptr inbounds nuw i8, ptr %18, i64 4
  store i32 1, ptr %18, align 4, !tbaa !8
  store i32 -184549336, ptr %21, align 4
  %22 = getelementptr inbounds nuw i8, ptr %18, i64 8
  store ptr @l_Lean_Meta_LazyDiscrTree_findModuleMatches___rarg___lambda__1___boxed, ptr %22, align 8, !tbaa !4
  %23 = getelementptr inbounds nuw i8, ptr %18, i64 16
  store i16 7, ptr %23, align 8, !tbaa !19
  %24 = getelementptr inbounds nuw i8, ptr %18, i64 18
  store i16 2, ptr %24, align 2, !tbaa !19
  %25 = getelementptr inbounds nuw i8, ptr %18, i64 24
  store ptr %0, ptr %25, align 8, !tbaa !4
  %26 = getelementptr inbounds nuw i8, ptr %18, i64 32
  store ptr %1, ptr %26, align 8, !tbaa !4
  %27 = load ptr, ptr @l_Lean_Meta_LazyDiscrTree_findModuleMatches___rarg___closed__1, align 8, !tbaa !4
  %28 = tail call ptr @lean_apply_4(ptr noundef nonnull %18, ptr noundef %2, ptr noundef %3, ptr noundef nonnull %4, ptr noundef %5) #6
  %29 = tail call ptr @l_Lean_profileitIOUnsafe___rarg(ptr noundef %27, ptr noundef %9, ptr noundef %28, ptr noundef nonnull inttoptr (i64 1 to ptr), ptr noundef %6) #6
  br i1 %.not, label %30, label %lean_dec.exit

30:                                               ; preds = %lean_alloc_closure.exit
  %31 = load i32, ptr %9, align 4, !tbaa !8
  %32 = icmp sgt i32 %31, 1
  br i1 %32, label %33, label %35, !prof !11

33:                                               ; preds = %30
  %34 = add nsw i32 %31, -1
  store i32 %34, ptr %9, align 4, !tbaa !8
  br label %lean_dec.exit

35:                                               ; preds = %30
  %.not.i = icmp eq i32 %31, 0
  br i1 %.not.i, label %lean_dec.exit, label %36

36:                                               ; preds = %35
  tail call void @lean_dec_ref_cold(ptr noundef nonnull %9) #6
  br label %lean_dec.exit

lean_dec.exit:                                    ; preds = %36, %35, %33, %lean_alloc_closure.exit
  ret ptr %29
}